; ModuleID = '20/1196.c'
source_filename = "20/1196.c"
target datalayout = "e-m:e-p270:32:32-p271:32:32-p272:64:64-i64:64-f80:128-n8:16:32:64-S128"
target triple = "x86_64-pc-linux-gnu"

@__const.main.b = private unnamed_addr constant <{ i8, [19 x i8] }> <{ i8 48, [19 x i8] zeroinitializer }>, align 16
@__const.main.c = private unnamed_addr constant <{ i8, [19 x i8] }> <{ i8 48, [19 x i8] zeroinitializer }>, align 16
@.str = private unnamed_addr constant [6 x i8] c"%s %s\00", align 1
@.str.1 = private unnamed_addr constant [4 x i8] c"%s\0A\00", align 1

; Function Attrs: noinline nounwind uwtable
define dso_local i32 @main() #0 {
  %1 = alloca i32, align 4
  %2 = alloca i32, align 4
  %3 = alloca i32, align 4
  %4 = alloca i32, align 4
  %5 = alloca i32, align 4
  %6 = alloca i32, align 4
  %7 = alloca [50 x i8], align 16
  %8 = alloca [20 x i8], align 16
  %9 = alloca [20 x i8], align 16
  store i32 0, i32* %1, align 4
  br label %10

10:                                               ; preds = %0, %107
  %11 = bitcast [50 x i8]* %7 to i8*
  call void @llvm.memset.p0i8.i64(i8* align 16 %11, i8 0, i64 50, i1 false)
  %12 = bitcast i8* %11 to <{ i8, [49 x i8] }>*
  %13 = getelementptr inbounds <{ i8, [49 x i8] }>, <{ i8, [49 x i8] }>* %12, i32 0, i32 0
  store i8 48, i8* %13, align 16
  %14 = bitcast [20 x i8]* %8 to i8*
  call void @llvm.memcpy.p0i8.p0i8.i64(i8* align 16 %14, i8* align 16 getelementptr inbounds (<{ i8, [19 x i8] }>, <{ i8, [19 x i8] }>* @__const.main.b, i32 0, i32 0), i64 20, i1 false)
  %15 = bitcast [20 x i8]* %9 to i8*
  call void @llvm.memcpy.p0i8.p0i8.i64(i8* align 16 %15, i8* align 16 getelementptr inbounds (<{ i8, [19 x i8] }>, <{ i8, [19 x i8] }>* @__const.main.c, i32 0, i32 0), i64 20, i1 false)
  %16 = getelementptr inbounds [50 x i8], [50 x i8]* %7, i64 0, i64 0
  %17 = getelementptr inbounds [20 x i8], [20 x i8]* %8, i64 0, i64 0
  %18 = call i32 (i8*, ...) @__isoc99_scanf(i8* getelementptr inbounds ([6 x i8], [6 x i8]* @.str, i64 0, i64 0), i8* %16, i8* %17)
  %19 = getelementptr inbounds [50 x i8], [50 x i8]* %7, i64 0, i64 0
  %20 = load i8, i8* %19, align 16
  %21 = sext i8 %20 to i32
  %22 = icmp eq i32 %21, 0
  br i1 %22, label %23, label %24

23:                                               ; preds = %10
  br label %108

24:                                               ; preds = %10
  %25 = getelementptr inbounds [50 x i8], [50 x i8]* %7, i64 0, i64 0
  %26 = call i64 @strlen(i8* %25) #5
  %27 = trunc i64 %26 to i32
  store i32 %27, i32* %5, align 4
  store i32 0, i32* %2, align 4
  br label %28

28:                                               ; preds = %62, %24
  %29 = load i32, i32* %2, align 4
  %30 = load i32, i32* %5, align 4
  %31 = icmp slt i32 %29, %30
  br i1 %31, label %32, label %65

32:                                               ; preds = %28
  store i32 0, i32* %4, align 4
  store i32 0, i32* %3, align 4
  br label %33

33:                                               ; preds = %53, %32
  %34 = load i32, i32* %3, align 4
  %35 = load i32, i32* %5, align 4
  %36 = icmp slt i32 %34, %35
  br i1 %36, label %37, label %56

37:                                               ; preds = %33
  %38 = load i32, i32* %2, align 4
  %39 = sext i32 %38 to i64
  %40 = getelementptr inbounds [50 x i8], [50 x i8]* %7, i64 0, i64 %39
  %41 = load i8, i8* %40, align 1
  %42 = sext i8 %41 to i32
  %43 = load i32, i32* %3, align 4
  %44 = sext i32 %43 to i64
  %45 = getelementptr inbounds [50 x i8], [50 x i8]* %7, i64 0, i64 %44
  %46 = load i8, i8* %45, align 1
  %47 = sext i8 %46 to i32
  %48 = icmp slt i32 %42, %47
  br i1 %48, label %49, label %52

49:                                               ; preds = %37
  %50 = load i32, i32* %4, align 4
  %51 = add nsw i32 %50, 1
  store i32 %51, i32* %4, align 4
  br label %52

52:                                               ; preds = %49, %37
  br label %53

53:                                               ; preds = %52
  %54 = load i32, i32* %3, align 4
  %55 = add nsw i32 %54, 1
  store i32 %55, i32* %3, align 4
  br label %33

56:                                               ; preds = %33
  %57 = load i32, i32* %4, align 4
  %58 = icmp eq i32 %57, 0
  br i1 %58, label %59, label %61

59:                                               ; preds = %56
  %60 = load i32, i32* %2, align 4
  store i32 %60, i32* %6, align 4
  br label %65

61:                                               ; preds = %56
  br label %62

62:                                               ; preds = %61
  %63 = load i32, i32* %2, align 4
  %64 = add nsw i32 %63, 1
  store i32 %64, i32* %2, align 4
  br label %28

65:                                               ; preds = %59, %28
  store i32 0, i32* %2, align 4
  br label %66

66:                                               ; preds = %89, %65
  %67 = load i32, i32* %2, align 4
  %68 = load i32, i32* %5, align 4
  %69 = load i32, i32* %6, align 4
  %70 = sub nsw i32 %68, %69
  %71 = icmp slt i32 %67, %70
  br i1 %71, label %72, label %92

72:                                               ; preds = %66
  %73 = load i32, i32* %2, align 4
  %74 = load i32, i32* %6, align 4
  %75 = add nsw i32 %73, %74
  %76 = add nsw i32 %75, 1
  %77 = sext i32 %76 to i64
  %78 = getelementptr inbounds [50 x i8], [50 x i8]* %7, i64 0, i64 %77
  %79 = load i8, i8* %78, align 1
  %80 = load i32, i32* %2, align 4
  %81 = sext i32 %80 to i64
  %82 = getelementptr inbounds [20 x i8], [20 x i8]* %9, i64 0, i64 %81
  store i8 %79, i8* %82, align 1
  %83 = load i32, i32* %2, align 4
  %84 = load i32, i32* %6, align 4
  %85 = add nsw i32 %83, %84
  %86 = add nsw i32 %85, 1
  %87 = sext i32 %86 to i64
  %88 = getelementptr inbounds [50 x i8], [50 x i8]* %7, i64 0, i64 %87
  store i8 0, i8* %88, align 1
  br label %89

89:                                               ; preds = %72
  %90 = load i32, i32* %2, align 4
  %91 = add nsw i32 %90, 1
  store i32 %91, i32* %2, align 4
  br label %66

92:                                               ; preds = %66
  %93 = getelementptr inbounds [50 x i8], [50 x i8]* %7, i64 0, i64 0
  %94 = getelementptr inbounds [20 x i8], [20 x i8]* %8, i64 0, i64 0
  %95 = call i8* @strcat(i8* %93, i8* %94) #6
  %96 = getelementptr inbounds [50 x i8], [50 x i8]* %7, i64 0, i64 0
  %97 = getelementptr inbounds [20 x i8], [20 x i8]* %9, i64 0, i64 0
  %98 = call i8* @strcat(i8* %96, i8* %97) #6
  %99 = getelementptr inbounds [50 x i8], [50 x i8]* %7, i64 0, i64 0
  %100 = load i8, i8* %99, align 16
  %101 = sext i8 %100 to i32
  %102 = icmp eq i32 %101, 48
  br i1 %102, label %103, label %104

103:                                              ; preds = %92
  br label %108

104:                                              ; preds = %92
  %105 = getelementptr inbounds [50 x i8], [50 x i8]* %7, i64 0, i64 0
  %106 = call i32 (i8*, ...) @printf(i8* getelementptr inbounds ([4 x i8], [4 x i8]* @.str.1, i64 0, i64 0), i8* %105)
  br label %107

107:                                              ; preds = %104
  br label %10

108:                                              ; preds = %103, %23
  ret i32 0
}

; Function Attrs: argmemonly nounwind willreturn
declare void @llvm.memset.p0i8.i64(i8* nocapture writeonly, i8, i64, i1 immarg) #1

; Function Attrs: argmemonly nounwind willreturn
declare void @llvm.memcpy.p0i8.p0i8.i64(i8* noalias nocapture writeonly, i8* noalias nocapture readonly, i64, i1 immarg) #1

declare dso_local i32 @__isoc99_scanf(i8*, ...) #2

; Function Attrs: nounwind readonly
declare dso_local i64 @strlen(i8*) #3

; Function Attrs: nounwind
declare dso_local i8* @strcat(i8*, i8*) #4

declare dso_local i32 @printf(i8*, ...) #2


!llvm.module.flags = !{!0}
!llvm.ident = !{!1}

!0 = !{i32 1, !"wchar_size", i32 4}
!1 = !{!"clang version 10.0.0-4ubuntu1 "}
